target datalayout = "e-m:e-p270:32:32-p271:32:32-p272:64:64-i64:64-i128:128-f80:128-n8:16:32:64-S128"
target triple = "x86_64-unknown-linux-gnu"

%"class.base::BasicStringPiece" = type { ptr, i64 }
%"class.net::Curve25519KeyExchange" = type { %"class.net::KeyExchange", [32 x i8], [32 x i8] }
%"class.net::KeyExchange" = type { ptr }

@_ZN3net21Curve25519KeyExchangeC1Ev = dso_local unnamed_addr alias void (ptr), ptr @_ZN3net21Curve25519KeyExchangeC2Ev

; Function Attrs: mustprogress uwtable
define dso_local noundef ptr @_ZN3net21Curve25519KeyExchange3NewEN4base16BasicStringPieceINSt7__cxx1112basic_stringIcSt11char_traitsIcESaIcEEEEE(ptr %private_key.coerce0, i64 %private_key.coerce1) #2 align 2 personality ptr @__gxx_personality_v0 {
entry:
  %retval = alloca ptr, align 8
  %private_key = alloca %"class.base::BasicStringPiece", align 8
  %ka = alloca ptr, align 8
  %exn.slot = alloca ptr, align 8
  %ehselector.slot = alloca i32, align 4
  %0 = getelementptr inbounds { ptr, i64 }, ptr %private_key, i32 0, i32 0
  store ptr %private_key.coerce0, ptr %0, align 8
  %1 = getelementptr inbounds { ptr, i64 }, ptr %private_key, i32 0, i32 1
  store i64 %private_key.coerce1, ptr %1, align 8
  %call = call noundef i64 @_ZNK4base16BasicStringPieceINSt7__cxx1112basic_stringIcSt11char_traitsIcESaIcEEEE4sizeEv(ptr noundef nonnull align 8 dereferenceable(16) %private_key)
  %cmp = icmp ne i64 %call, 32
  br i1 %cmp, label %if.then, label %if.end

if.then:                                          ; preds = %entry
  store ptr null, ptr %retval, align 8
  br label %return

if.end:                                           ; preds = %entry
  %call1 = call noalias noundef nonnull ptr @_Znwm(i64 noundef 72) #10
  invoke void @_ZN3net21Curve25519KeyExchangeC1Ev(ptr noundef nonnull align 8 dereferenceable(72) %call1)
          to label %invoke.cont unwind label %lpad

invoke.cont:                                      ; preds = %if.end
  store ptr %call1, ptr %ka, align 8
  %2 = load ptr, ptr %ka, align 8
  %private_key_ = getelementptr inbounds %"class.net::Curve25519KeyExchange", ptr %2, i32 0, i32 1
  %arraydecay = getelementptr inbounds [32 x i8], ptr %private_key_, i64 0, i64 0
  %call2 = call noundef ptr @_ZNK4base16BasicStringPieceINSt7__cxx1112basic_stringIcSt11char_traitsIcESaIcEEEE4dataEv(ptr noundef nonnull align 8 dereferenceable(16) %private_key)
  call void @llvm.memcpy.p0.p0.i64(ptr align 8 %arraydecay, ptr align 1 %call2, i64 32, i1 false)
  %3 = load ptr, ptr %ka, align 8
  %private_key_3 = getelementptr inbounds %"class.net::Curve25519KeyExchange", ptr %3, i32 0, i32 1
  %arraydecay4 = getelementptr inbounds [32 x i8], ptr %private_key_3, i64 0, i64 0
  %4 = load ptr, ptr %ka, align 8
  %public_key_ = getelementptr inbounds %"class.net::Curve25519KeyExchange", ptr %4, i32 0, i32 2
  %arraydecay5 = getelementptr inbounds [32 x i8], ptr %public_key_, i64 0, i64 0
  call void @_ZN6crypto10curve2551914ScalarBaseMultEPKhPh(ptr noundef %arraydecay4, ptr noundef %arraydecay5)
  %5 = load ptr, ptr %ka, align 8
  store ptr %5, ptr %retval, align 8
  br label %return

lpad:                                             ; preds = %if.end
  %6 = landingpad { ptr, i32 }
          cleanup
  %7 = extractvalue { ptr, i32 } %6, 0
  store ptr %7, ptr %exn.slot, align 8
  %8 = extractvalue { ptr, i32 } %6, 1
  store i32 %8, ptr %ehselector.slot, align 4
  call void @_ZdlPv(ptr noundef %call1) #9
  br label %eh.resume

return:                                           ; preds = %invoke.cont, %if.then
  %9 = load ptr, ptr %retval, align 8
  ret ptr %9

eh.resume:                                        ; preds = %lpad
  %exn = load ptr, ptr %exn.slot, align 8
  %sel = load i32, ptr %ehselector.slot, align 4
  %lpad.val = insertvalue { ptr, i32 } poison, ptr %exn, 0
  %lpad.val6 = insertvalue { ptr, i32 } %lpad.val, i32 %sel, 1
  resume { ptr, i32 } %lpad.val6
}