; Function Attrs: mustprogress uwtable
define dso_local noundef ptr @_ZN3net21Curve25519KeyExchange3NewEN4base16BasicStringPieceINSt7__cxx1112basic_stringIcSt11char_traitsIcESaIcEEEEE(ptr %private_key.coerce0, i64 %private_key.coerce1) local_unnamed_addr #4 align 2 personality ptr @__gxx_personality_v0 {
entry:
  %private_key = alloca %"class.base::BasicStringPiece", align 8
  store ptr %private_key.coerce0, ptr %private_key, align 8
  %0 = getelementptr inbounds i8, ptr %private_key, i64 8
  store i64 %private_key.coerce1, ptr %0, align 8
  %call = call noundef i64 @_ZNK4base16BasicStringPieceINSt7__cxx1112basic_stringIcSt11char_traitsIcESaIcEEEE4sizeEv(ptr noundef nonnull align 8 dereferenceable(16) %private_key)
  %cmp.not = icmp eq i64 %call, 32
  br i1 %cmp.not, label %if.end, label %return

if.end:                                           ; preds = %entry
  %call1 = call noalias noundef nonnull dereferenceable(72) ptr @_Znwm(i64 noundef 72) #11
  store ptr getelementptr inbounds ({ [8 x ptr] }, ptr @_ZTVN3net21Curve25519KeyExchangeE, i64 0, i32 0, i64 2), ptr %call1, align 8
  %private_key_ = getelementptr inbounds i8, ptr %call1, i64 8
  %call2 = call noundef ptr @_ZNK4base16BasicStringPieceINSt7__cxx1112basic_stringIcSt11char_traitsIcESaIcEEEE4dataEv(ptr noundef nonnull align 8 dereferenceable(16) %private_key)
  call void @llvm.memcpy.p0.p0.i64(ptr noundef nonnull align 8 dereferenceable(32) %private_key_, ptr noundef nonnull align 1 dereferenceable(32) %call2, i64 32, i1 false)
  %public_key_ = getelementptr inbounds i8, ptr %call1, i64 40
  call void @_ZN6crypto10curve2551914ScalarBaseMultEPKhPh(ptr noundef nonnull %private_key_, ptr noundef nonnull %public_key_)
  br label %return

return:                                           ; preds = %entry, %if.end
  %retval.0 = phi ptr [ %call1, %if.end ], [ null, %entry ]
  ret ptr %retval.0
}